target datalayout = "e-m:e-p270:32:32-p271:32:32-p272:64:64-i64:64-i128:128-f80:128-n8:16:32:64-S128"
target triple = "x86_64-pc-linux-gnu"

%struct.Curl_easy = type { i32, i64, i64, ptr, %struct.Curl_llist_node, %struct.Curl_llist_node, i32, i32, %struct.Curl_message, %struct.easy_pollset, %struct.Names, ptr, ptr, ptr, %struct.SingleRequest, %struct.UserDefined, ptr, ptr, %struct.Progress, %struct.UrlState, ptr, %struct.PureInfo, %struct.curl_tlssessioninfo }
%struct.Curl_llist_node = type { ptr, ptr, ptr, ptr }
%struct.Curl_message = type { %struct.Curl_llist_node, %struct.CURLMsg }
%struct.CURLMsg = type { i32, ptr, %union.anon }
%union.anon = type { ptr }
%struct.easy_pollset = type { [5 x i32], i32, [5 x i8] }
%struct.Names = type { ptr, i32 }
%struct.SingleRequest = type <{ i64, i64, i64, i64, %struct.curltime, i32, i32, i32, i32, i64, i32, i32, i32, i32, ptr, ptr, %struct.bufq, i64, i64, ptr, ptr, %union.anon.0, ptr, i8, i32, [3 x i8] }>
%struct.curltime = type { i64, i32 }
%struct.bufq = type { ptr, ptr, ptr, ptr, i64, i64, i64, i32 }
%union.anon.0 = type { ptr }
%struct.UserDefined = type <{ ptr, ptr, ptr, ptr, ptr, ptr, i16, [6 x i8], i64, i64, i64, ptr, ptr, i64, i16, i16, [4 x i8], ptr, ptr, ptr, ptr, ptr, ptr, ptr, ptr, ptr, ptr, ptr, ptr, ptr, ptr, ptr, ptr, ptr, ptr, ptr, ptr, ptr, ptr, ptr, i32, i32, i32, i32, i32, [4 x i8], i64, i64, i64, i64, i64, i64, i64, i64, ptr, ptr, %struct.curl_mimepart, ptr, ptr, i64, i8, i8, i8, [5 x i8], %struct.ssl_config_data, %struct.ssl_config_data, ptr, i16, i8, i8, [4 x i8], %struct.ssl_general_config, i32, i32, i32, [4 x i8], ptr, ptr, i8, [7 x i8], i64, i8, i8, i8, i8, i32, ptr, ptr, ptr, i8, i8, [2 x i8], i32, [63 x ptr], [8 x ptr], i32, i32, i32, [4 x i8], ptr, ptr, ptr, ptr, ptr, i8, [3 x i8], i32, i32, i32, i64, %struct.Curl_data_priority, ptr, ptr, i64, ptr, i64, ptr, ptr, ptr, i8, [3 x i8], i32, i8, i8, i64, [6 x i8] }>
%struct.curl_mimepart = type { ptr, ptr, i32, i32, ptr, ptr, ptr, ptr, ptr, ptr, ptr, ptr, ptr, ptr, ptr, i64, %struct.mime_state, ptr, %struct.mime_encoder_state, i64 }
%struct.mime_state = type { i32, ptr, i64 }
%struct.mime_encoder_state = type { i64, i64, i64, [256 x i8] }
%struct.ssl_config_data = type { %struct.ssl_primary_config, i64, ptr, ptr, ptr, ptr, ptr, ptr, ptr, i16 }
%struct.ssl_primary_config = type { ptr, ptr, ptr, ptr, ptr, ptr, ptr, ptr, ptr, ptr, ptr, ptr, i8, i32, i8, i8 }
%struct.ssl_general_config = type { i64, i32 }
%struct.Curl_data_priority = type { ptr, ptr, i32, i8 }
%struct.Progress = type { i64, %struct.pgrs_dir, %struct.pgrs_dir, i64, i64, i32, i32, i64, i64, i64, i64, i64, i64, i64, i64, i64, %struct.curltime, %struct.curltime, %struct.curltime, %struct.curltime, [6 x i64], [6 x %struct.curltime], i32, i8 }
%struct.pgrs_dir = type { i64, i64, i64, %struct.pgrs_measure }
%struct.pgrs_measure = type { %struct.curltime, i64 }
%struct.UrlState = type { %struct.curltime, i64, i64, %struct.dynbuf, ptr, i64, ptr, i32, i32, i32, ptr, i64, i32, i64, i32, ptr, %struct.digestdata, %struct.digestdata, %struct.auth, %struct.auth, %struct.Curl_async, ptr, %struct.curltime, %struct.Curl_tree, %struct.Curl_llist, [15 x %struct.time_node], ptr, ptr, i64, i64, %struct.Curl_data_priority, ptr, ptr, ptr, %struct.urlpieces, ptr, ptr, ptr, ptr, ptr, i64, %struct.dynbuf, %struct.Curl_llist, [2 x %struct.curl_header], ptr, i32, ptr, ptr, %struct.store_netrc, %struct.dynamically_allocated_data, i8, i8, i8, i8, i32 }
%struct.digestdata = type { ptr, ptr, ptr, ptr, ptr, ptr, i32, i8, i8 }
%struct.auth = type { i64, i64, i64, i8 }
%struct.Curl_async = type { ptr, ptr, ptr, ptr, i32, i32, i8 }
%struct.Curl_tree = type { ptr, ptr, ptr, ptr, %struct.curltime, ptr }
%struct.time_node = type { %struct.Curl_llist_node, %struct.curltime, i32 }
%struct.urlpieces = type { ptr, ptr, ptr, ptr, ptr, ptr, ptr, ptr }
%struct.dynbuf = type { ptr, i64, i64, i64 }
%struct.Curl_llist = type { ptr, ptr, ptr, i64 }
%struct.curl_header = type { ptr, ptr, i64, i64, i32, ptr }
%struct.store_netrc = type { %struct.dynbuf, ptr, i8 }
%struct.dynamically_allocated_data = type { ptr, ptr, ptr, ptr, ptr, ptr, ptr, ptr, ptr, ptr, ptr, ptr, ptr }
%struct.PureInfo = type { i32, i32, i32, i64, i64, i64, i64, i64, ptr, ptr, i64, i32, %struct.ip_quadruple, i32, ptr, i32, %struct.curl_certinfo, i32, i8 }
%struct.ip_quadruple = type { [46 x i8], [46 x i8], i32, i32 }
%struct.curl_certinfo = type { i32, ptr }
%struct.curl_tlssessioninfo = type { i32, ptr }
%struct.connectdata = type { %struct.Curl_llist_node, ptr, ptr, i64, ptr, i64, ptr, ptr, %struct.hostname, ptr, ptr, %struct.hostname, %struct.proxy_info, %struct.proxy_info, %struct.ip_quadruple, %struct.ip_quadruple, ptr, ptr, ptr, ptr, ptr, %struct.curltime, %struct.curltime, %struct.curltime, [2 x i32], [2 x ptr], [2 x ptr], [2 x ptr], %struct.anon, %struct.easy_pollset, %struct.ssl_primary_config, %struct.ssl_primary_config, %struct.ConnectBits, ptr, ptr, %struct.curltime, i32, i32, %struct.Curl_llist, i32, i32, %struct.ntlmdata, %struct.ntlmdata, %union.anon.1, ptr, i16, i32, i32, i32, i32, i16, i16, i8, i8, i8, i8, i8, i8, i8 }
%struct.hostname = type { ptr, ptr, ptr, ptr }
%struct.proxy_info = type { %struct.hostname, i32, i8, ptr, ptr }
%struct.anon = type { [2 x %struct.curltime], i32 }
%struct.ConnectBits = type { i64 }
%struct.ntlmdata = type { i32, [8 x i8], i32, ptr }
%union.anon.1 = type { %struct.ftp_conn }
%struct.ftp_conn = type { %struct.pingpong, ptr, ptr, ptr, ptr, ptr, ptr, ptr, i8, i64, ptr, i64, i32, i32, i32, i32, i32, i16, i8, i8, i8, i8, i8 }
%struct.pingpong = type { i64, i8, ptr, i64, i64, %struct.curltime, i64, %struct.dynbuf, %struct.dynbuf, i64, i64, ptr, ptr }

; Function Attrs: nounwind uwtable
define dso_local i32 @Curl_http_output_auth(ptr noundef %0, ptr noundef %1, ptr noundef %2, i32 noundef %3, ptr noundef %4, i1 noundef zeroext %5) #0 {
  %7 = alloca i32, align 4
  %8 = alloca ptr, align 8
  %9 = alloca ptr, align 8
  %10 = alloca ptr, align 8
  %11 = alloca i32, align 4
  %12 = alloca ptr, align 8
  %13 = alloca i8, align 1
  %14 = alloca i32, align 4
  %15 = alloca ptr, align 8
  %16 = alloca ptr, align 8
  %17 = alloca i32, align 4
  store ptr %0, ptr %8, align 8, !tbaa !4
  store ptr %1, ptr %9, align 8, !tbaa !9
  store ptr %2, ptr %10, align 8, !tbaa !83
  store i32 %3, ptr %11, align 4, !tbaa !79
  store ptr %4, ptr %12, align 8, !tbaa !83
  %18 = zext i1 %5 to i8
  store i8 %18, ptr %13, align 1, !tbaa !84
  call void @llvm.lifetime.start.p0(i64 4, ptr %14) #6
  store i32 0, ptr %14, align 4, !tbaa !79
  call void @llvm.lifetime.start.p0(i64 8, ptr %15) #6
  call void @llvm.lifetime.start.p0(i64 8, ptr %16) #6
  br label %19

19:                                               ; preds = %6
  br label %20

20:                                               ; preds = %19
  br label %21

21:                                               ; preds = %20
  %22 = load ptr, ptr %8, align 8, !tbaa !4
  %23 = getelementptr inbounds nuw %struct.Curl_easy, ptr %22, i32 0, i32 19
  %24 = getelementptr inbounds nuw %struct.UrlState, ptr %23, i32 0, i32 18
  store ptr %24, ptr %15, align 8, !tbaa !142
  %25 = load ptr, ptr %8, align 8, !tbaa !4
  %26 = getelementptr inbounds nuw %struct.Curl_easy, ptr %25, i32 0, i32 19
  %27 = getelementptr inbounds nuw %struct.UrlState, ptr %26, i32 0, i32 19
  store ptr %27, ptr %16, align 8, !tbaa !142
  %28 = load ptr, ptr %9, align 8, !tbaa !9
  %29 = getelementptr inbounds nuw %struct.connectdata, ptr %28, i32 0, i32 32
  %30 = load i64, ptr %29, align 8
  %31 = and i64 %30, 1
  %32 = trunc i64 %31 to i32
  %33 = icmp ne i32 %32, 0
  br i1 %33, label %34, label %42

34:                                               ; preds = %21
  %35 = load ptr, ptr %9, align 8, !tbaa !9
  %36 = getelementptr inbounds nuw %struct.connectdata, ptr %35, i32 0, i32 32
  %37 = load i64, ptr %36, align 8
  %38 = lshr i64 %37, 2
  %39 = and i64 %38, 1
  %40 = trunc i64 %39 to i32
  %41 = icmp ne i32 %40, 0
  br i1 %41, label %56, label %42

42:                                               ; preds = %34, %21
  %43 = load ptr, ptr %8, align 8, !tbaa !4
  %44 = getelementptr inbounds nuw %struct.Curl_easy, ptr %43, i32 0, i32 19
  %45 = getelementptr inbounds nuw %struct.UrlState, ptr %44, i32 0, i32 49
  %46 = getelementptr inbounds nuw %struct.dynamically_allocated_data, ptr %45, i32 0, i32 8
  %47 = load ptr, ptr %46, align 8, !tbaa !134
  %48 = icmp ne ptr %47, null
  br i1 %48, label %56, label %49

49:                                               ; preds = %42
  %50 = load ptr, ptr %8, align 8, !tbaa !4
  %51 = getelementptr inbounds nuw %struct.Curl_easy, ptr %50, i32 0, i32 15
  %52 = getelementptr inbounds nuw %struct.UserDefined, ptr %51, i32 0, i32 93
  %53 = getelementptr inbounds [63 x ptr], ptr %52, i64 0, i64 51
  %54 = load ptr, ptr %53, align 8, !tbaa !83
  %55 = icmp ne ptr %54, null
  br i1 %55, label %56, label %57

56:                                               ; preds = %49, %42, %34
  br label %68

57:                                               ; preds = %49
  %58 = load ptr, ptr %15, align 8, !tbaa !142
  %59 = getelementptr inbounds nuw %struct.auth, ptr %58, i32 0, i32 3
  %60 = load i8, ptr %59, align 8
  %61 = and i8 %60, -2
  %62 = or i8 %61, 1
  store i8 %62, ptr %59, align 8
  %63 = load ptr, ptr %16, align 8, !tbaa !142
  %64 = getelementptr inbounds nuw %struct.auth, ptr %63, i32 0, i32 3
  %65 = load i8, ptr %64, align 8
  %66 = and i8 %65, -2
  %67 = or i8 %66, 1
  store i8 %67, ptr %64, align 8
  store i32 0, ptr %7, align 4
  store i32 1, ptr %17, align 4
  br label %212

68:                                               ; preds = %56
  %69 = load ptr, ptr %15, align 8, !tbaa !142
  %70 = getelementptr inbounds nuw %struct.auth, ptr %69, i32 0, i32 0
  %71 = load i64, ptr %70, align 8, !tbaa !145
  %72 = icmp ne i64 %71, 0
  br i1 %72, label %73, label %84

73:                                               ; preds = %68
  %74 = load ptr, ptr %15, align 8, !tbaa !142
  %75 = getelementptr inbounds nuw %struct.auth, ptr %74, i32 0, i32 1
  %76 = load i64, ptr %75, align 8, !tbaa !146
  %77 = icmp ne i64 %76, 0
  br i1 %77, label %84, label %78

78:                                               ; preds = %73
  %79 = load ptr, ptr %15, align 8, !tbaa !142
  %80 = getelementptr inbounds nuw %struct.auth, ptr %79, i32 0, i32 0
  %81 = load i64, ptr %80, align 8, !tbaa !145
  %82 = load ptr, ptr %15, align 8, !tbaa !142
  %83 = getelementptr inbounds nuw %struct.auth, ptr %82, i32 0, i32 1
  store i64 %81, ptr %83, align 8, !tbaa !146
  br label %84

84:                                               ; preds = %78, %73, %68
  %85 = load ptr, ptr %16, align 8, !tbaa !142
  %86 = getelementptr inbounds nuw %struct.auth, ptr %85, i32 0, i32 0
  %87 = load i64, ptr %86, align 8, !tbaa !145
  %88 = icmp ne i64 %87, 0
  br i1 %88, label %89, label %100

89:                                               ; preds = %84
  %90 = load ptr, ptr %16, align 8, !tbaa !142
  %91 = getelementptr inbounds nuw %struct.auth, ptr %90, i32 0, i32 1
  %92 = load i64, ptr %91, align 8, !tbaa !146
  %93 = icmp ne i64 %92, 0
  br i1 %93, label %100, label %94

94:                                               ; preds = %89
  %95 = load ptr, ptr %16, align 8, !tbaa !142
  %96 = getelementptr inbounds nuw %struct.auth, ptr %95, i32 0, i32 0
  %97 = load i64, ptr %96, align 8, !tbaa !145
  %98 = load ptr, ptr %16, align 8, !tbaa !142
  %99 = getelementptr inbounds nuw %struct.auth, ptr %98, i32 0, i32 1
  store i64 %97, ptr %99, align 8, !tbaa !146
  br label %100

100:                                              ; preds = %94, %89, %84
  %101 = load ptr, ptr %9, align 8, !tbaa !9
  %102 = getelementptr inbounds nuw %struct.connectdata, ptr %101, i32 0, i32 32
  %103 = load i64, ptr %102, align 8
  %104 = and i64 %103, 1
  %105 = trunc i64 %104 to i32
  %106 = icmp ne i32 %105, 0
  br i1 %106, label %107, label %130

107:                                              ; preds = %100
  %108 = load ptr, ptr %9, align 8, !tbaa !9
  %109 = getelementptr inbounds nuw %struct.connectdata, ptr %108, i32 0, i32 32
  %110 = load i64, ptr %109, align 8
  %111 = lshr i64 %110, 3
  %112 = and i64 %111, 1
  %113 = trunc i64 %112 to i32
  %114 = load i8, ptr %13, align 1, !tbaa !84, !range !113, !noundef !114
  %115 = trunc i8 %114 to i1
  %116 = zext i1 %115 to i32
  %117 = icmp eq i32 %113, %116
  br i1 %117, label %118, label %130

118:                                              ; preds = %107
  %119 = load ptr, ptr %8, align 8, !tbaa !4
  %120 = load ptr, ptr %9, align 8, !tbaa !9
  %121 = load ptr, ptr %16, align 8, !tbaa !142
  %122 = load ptr, ptr %10, align 8, !tbaa !83
  %123 = load ptr, ptr %12, align 8, !tbaa !83
  %124 = call i32 @output_auth_headers(ptr noundef %119, ptr noundef %120, ptr noundef %121, ptr noundef %122, ptr noundef %123, i1 noundef zeroext true)
  store i32 %124, ptr %14, align 4, !tbaa !79
  %125 = load i32, ptr %14, align 4, !tbaa !79
  %126 = icmp ne i32 %125, 0
  br i1 %126, label %127, label %129

127:                                              ; preds = %118
  %128 = load i32, ptr %14, align 4, !tbaa !79
  store i32 %128, ptr %7, align 4
  store i32 1, ptr %17, align 4
  br label %212

129:                                              ; preds = %118
  br label %136

130:                                              ; preds = %107, %100
  %131 = load ptr, ptr %16, align 8, !tbaa !142
  %132 = getelementptr inbounds nuw %struct.auth, ptr %131, i32 0, i32 3
  %133 = load i8, ptr %132, align 8
  %134 = and i8 %133, -2
  %135 = or i8 %134, 1
  store i8 %135, ptr %132, align 8
  br label %136

136:                                              ; preds = %130, %129
  %137 = load ptr, ptr %8, align 8, !tbaa !4
  %138 = call zeroext i1 @Curl_auth_allowed_to_host(ptr noundef %137)
  br i1 %138, label %147, label %139

139:                                              ; preds = %136
  %140 = load ptr, ptr %9, align 8, !tbaa !9
  %141 = getelementptr inbounds nuw %struct.connectdata, ptr %140, i32 0, i32 32
  %142 = load i64, ptr %141, align 8
  %143 = lshr i64 %142, 19
  %144 = and i64 %143, 1
  %145 = trunc i64 %144 to i32
  %146 = icmp ne i32 %145, 0
  br i1 %146, label %147, label %154

147:                                              ; preds = %139, %136
  %148 = load ptr, ptr %8, align 8, !tbaa !4
  %149 = load ptr, ptr %9, align 8, !tbaa !9
  %150 = load ptr, ptr %15, align 8, !tbaa !142
  %151 = load ptr, ptr %10, align 8, !tbaa !83
  %152 = load ptr, ptr %12, align 8, !tbaa !83
  %153 = call i32 @output_auth_headers(ptr noundef %148, ptr noundef %149, ptr noundef %150, ptr noundef %151, ptr noundef %152, i1 noundef zeroext false)
  store i32 %153, ptr %14, align 4, !tbaa !79
  br label %160

154:                                              ; preds = %139
  %155 = load ptr, ptr %15, align 8, !tbaa !142
  %156 = getelementptr inbounds nuw %struct.auth, ptr %155, i32 0, i32 3
  %157 = load i8, ptr %156, align 8
  %158 = and i8 %157, -2
  %159 = or i8 %158, 1
  store i8 %159, ptr %156, align 8
  br label %160

160:                                              ; preds = %154, %147
  %161 = load ptr, ptr %15, align 8, !tbaa !142
  %162 = getelementptr inbounds nuw %struct.auth, ptr %161, i32 0, i32 3
  %163 = load i8, ptr %162, align 8
  %164 = lshr i8 %163, 1
  %165 = and i8 %164, 1
  %166 = zext i8 %165 to i32
  %167 = icmp ne i32 %166, 0
  br i1 %167, label %168, label %175

168:                                              ; preds = %160
  %169 = load ptr, ptr %15, align 8, !tbaa !142
  %170 = getelementptr inbounds nuw %struct.auth, ptr %169, i32 0, i32 3
  %171 = load i8, ptr %170, align 8
  %172 = and i8 %171, 1
  %173 = zext i8 %172 to i32
  %174 = icmp ne i32 %173, 0
  br i1 %174, label %175, label %190

175:                                              ; preds = %168, %160
  %176 = load ptr, ptr %16, align 8, !tbaa !142
  %177 = getelementptr inbounds nuw %struct.auth, ptr %176, i32 0, i32 3
  %178 = load i8, ptr %177, align 8
  %179 = lshr i8 %178, 1
  %180 = and i8 %179, 1
  %181 = zext i8 %180 to i32
  %182 = icmp ne i32 %181, 0
  br i1 %182, label %183, label %203

183:                                              ; preds = %175
  %184 = load ptr, ptr %16, align 8, !tbaa !142
  %185 = getelementptr inbounds nuw %struct.auth, ptr %184, i32 0, i32 3
  %186 = load i8, ptr %185, align 8
  %187 = and i8 %186, 1
  %188 = zext i8 %187 to i32
  %189 = icmp ne i32 %188, 0
  br i1 %189, label %203, label %190

190:                                              ; preds = %183, %168
  %191 = load i32, ptr %11, align 4, !tbaa !79
  %192 = icmp ne i32 %191, 0
  br i1 %192, label %193, label %203

193:                                              ; preds = %190
  %194 = load i32, ptr %11, align 4, !tbaa !79
  %195 = icmp ne i32 %194, 5
  br i1 %195, label %196, label %203

196:                                              ; preds = %193
  %197 = load ptr, ptr %8, align 8, !tbaa !4
  %198 = getelementptr inbounds nuw %struct.Curl_easy, ptr %197, i32 0, i32 14
  %199 = getelementptr inbounds nuw %struct.SingleRequest, ptr %198, i32 0, i32 24
  %200 = load i32, ptr %199, align 1
  %201 = and i32 %200, -262145
  %202 = or i32 %201, 262144
  store i32 %202, ptr %199, align 1
  br label %210

203:                                              ; preds = %193, %190, %183, %175
  %204 = load ptr, ptr %8, align 8, !tbaa !4
  %205 = getelementptr inbounds nuw %struct.Curl_easy, ptr %204, i32 0, i32 14
  %206 = getelementptr inbounds nuw %struct.SingleRequest, ptr %205, i32 0, i32 24
  %207 = load i32, ptr %206, align 1
  %208 = and i32 %207, -262145
  %209 = or i32 %208, 0
  store i32 %209, ptr %206, align 1
  br label %210

210:                                              ; preds = %203, %196
  %211 = load i32, ptr %14, align 4, !tbaa !79
  store i32 %211, ptr %7, align 4
  store i32 1, ptr %17, align 4
  br label %212

212:                                              ; preds = %210, %127, %57
  call void @llvm.lifetime.end.p0(i64 8, ptr %16) #6
  call void @llvm.lifetime.end.p0(i64 8, ptr %15) #6
  call void @llvm.lifetime.end.p0(i64 4, ptr %14) #6
  %213 = load i32, ptr %7, align 4
  ret i32 %213
}