; Function Attrs: nounwind uwtable
define dso_local i32 @Curl_http_output_auth(ptr noundef %0, ptr noundef readonly captures(none) %1, ptr noundef %2, i32 noundef %3, ptr noundef %4, i1 noundef zeroext %5) local_unnamed_addr #0 {
  %7 = getelementptr inbounds nuw i8, ptr %0, i64 3272
  %8 = getelementptr inbounds nuw i8, ptr %0, i64 3304
  %9 = getelementptr inbounds nuw i8, ptr %1, i64 920
  %10 = load i64, ptr %9, align 8
  %11 = and i64 %10, 5
  %or.cond65.not = icmp eq i64 %11, 5
  br i1 %or.cond65.not, label %25, label %12

12:                                               ; preds = %6
  %13 = getelementptr inbounds nuw i8, ptr %0, i64 4832
  %14 = load ptr, ptr %13, align 8, !tbaa !124
  %.not52 = icmp eq ptr %14, null
  br i1 %.not52, label %15, label %25

15:                                               ; preds = %12
  %16 = getelementptr inbounds nuw i8, ptr %0, i64 2224
  %17 = load ptr, ptr %16, align 8, !tbaa !78
  %.not53 = icmp eq ptr %17, null
  br i1 %.not53, label %18, label %25

18:                                               ; preds = %15
  %19 = getelementptr inbounds nuw i8, ptr %0, i64 3296
  %20 = load i8, ptr %19, align 8
  %21 = or i8 %20, 1
  store i8 %21, ptr %19, align 8
  %22 = getelementptr inbounds nuw i8, ptr %0, i64 3328
  %23 = load i8, ptr %22, align 8
  %24 = or i8 %23, 1
  store i8 %24, ptr %22, align 8
  br label %77

25:                                               ; preds = %6, %12, %15
  %26 = load i64, ptr %7, align 8, !tbaa !126
  %.not54 = icmp eq i64 %26, 0
  br i1 %.not54, label %31, label %27

27:                                               ; preds = %25
  %28 = getelementptr inbounds nuw i8, ptr %0, i64 3280
  %29 = load i64, ptr %28, align 8, !tbaa !127
  %.not55 = icmp eq i64 %29, 0
  br i1 %.not55, label %30, label %31

30:                                               ; preds = %27
  store i64 %26, ptr %28, align 8, !tbaa !127
  br label %31

31:                                               ; preds = %30, %27, %25
  %32 = load i64, ptr %8, align 8, !tbaa !126
  %.not56 = icmp eq i64 %32, 0
  br i1 %.not56, label %37, label %33

33:                                               ; preds = %31
  %34 = getelementptr inbounds nuw i8, ptr %0, i64 3312
  %35 = load i64, ptr %34, align 8, !tbaa !127
  %.not57 = icmp eq i64 %35, 0
  br i1 %.not57, label %36, label %37

36:                                               ; preds = %33
  store i64 %32, ptr %34, align 8, !tbaa !127
  br label %37

37:                                               ; preds = %36, %33, %31
  %38 = load i64, ptr %9, align 8
  %39 = and i64 %38, 1
  %.not58 = icmp eq i64 %39, 0
  br i1 %.not58, label %46, label %40

40:                                               ; preds = %37
  %41 = and i64 %38, 8
  %42 = icmp eq i64 %41, 0
  %43 = xor i1 %5, %42
  br i1 %43, label %44, label %46

44:                                               ; preds = %40
  %45 = tail call fastcc i32 @output_auth_headers(ptr noundef nonnull %0, ptr noundef nonnull %1, ptr noundef nonnull %8, ptr noundef %2, ptr noundef %4, i1 noundef zeroext true)
  %.not59 = icmp eq i32 %45, 0
  br i1 %.not59, label %50, label %77

46:                                               ; preds = %40, %37
  %47 = getelementptr inbounds nuw i8, ptr %0, i64 3328
  %48 = load i8, ptr %47, align 8
  %49 = or i8 %48, 1
  store i8 %49, ptr %47, align 8
  br label %50

50:                                               ; preds = %44, %46
  %51 = tail call zeroext i1 @Curl_auth_allowed_to_host(ptr noundef nonnull %0) #11
  br i1 %51, label %55, label %52

52:                                               ; preds = %50
  %53 = load i64, ptr %9, align 8
  %54 = and i64 %53, 524288
  %.not60 = icmp eq i64 %54, 0
  br i1 %.not60, label %57, label %55

55:                                               ; preds = %52, %50
  %56 = tail call fastcc i32 @output_auth_headers(ptr noundef nonnull %0, ptr noundef nonnull %1, ptr noundef nonnull %7, ptr noundef %2, ptr noundef %4, i1 noundef zeroext false)
  %.phi.trans.insert = getelementptr inbounds nuw i8, ptr %0, i64 3296
  %.pre = load i8, ptr %.phi.trans.insert, align 8
  br label %61

57:                                               ; preds = %52
  %58 = getelementptr inbounds nuw i8, ptr %0, i64 3296
  %59 = load i8, ptr %58, align 8
  %60 = or i8 %59, 1
  store i8 %60, ptr %58, align 8
  br label %61

61:                                               ; preds = %57, %55
  %62 = phi i8 [ %.pre, %55 ], [ %60, %57 ]
  %.1 = phi i32 [ %56, %55 ], [ 0, %57 ]
  %63 = and i8 %62, 3
  %or.cond66 = icmp eq i8 %63, 2
  br i1 %or.cond66, label %68, label %64

64:                                               ; preds = %61
  %65 = getelementptr inbounds nuw i8, ptr %0, i64 3328
  %66 = load i8, ptr %65, align 8
  %.fr70 = freeze i8 %66
  %67 = and i8 %.fr70, 3
  %or.cond = icmp eq i8 %67, 2
  br i1 %or.cond, label %switch.early.test, label %73

switch.early.test:                                ; preds = %64
  switch i32 %3, label %69 [
    i32 5, label %73
    i32 0, label %73
  ]

68:                                               ; preds = %61
  switch i32 %3, label %69 [
    i32 0, label %73
    i32 5, label %73
  ]

69:                                               ; preds = %switch.early.test, %68
  %70 = getelementptr inbounds nuw i8, ptr %0, i64 449
  %71 = load i32, ptr %70, align 1
  %72 = or i32 %71, 262144
  store i32 %72, ptr %70, align 1
  br label %77

73:                                               ; preds = %switch.early.test, %switch.early.test, %68, %68, %64
  %74 = getelementptr inbounds nuw i8, ptr %0, i64 449
  %75 = load i32, ptr %74, align 1
  %76 = and i32 %75, -262145
  store i32 %76, ptr %74, align 1
  br label %77

77:                                               ; preds = %69, %73, %44, %18
  %.0 = phi i32 [ 0, %18 ], [ %45, %44 ], [ %.1, %73 ], [ %.1, %69 ]
  ret i32 %.0
}